target datalayout = "e-m:e-p270:32:32-p271:32:32-p272:64:64-i64:64-i128:128-f80:128-n8:16:32:64-S128"
target triple = "x86_64-pc-linux-gnu"

@ett_thread = internal global i32 0, align 4
@ett_thread_ie_fields = internal global i32 0, align 4
@dissect_thread_ie.fields = internal global [3 x ptr] [ptr @hf_ieee802154_thread_ie_id, ptr @hf_ieee802154_thread_ie_length, ptr null], align 16
@.str.487 = private unnamed_addr constant [10 x i8] c"Thread IE\00", align 1
@hf_ieee802154_thread_ie = internal global i32 0, align 4

; Function Attrs: null_pointer_is_valid sspstrong uwtable
define internal i32 @dissect_thread_ie(ptr noundef %0, ptr noundef %1, ptr noundef %2, ptr noundef %3) #0 {
  %5 = alloca ptr, align 8
  %6 = alloca ptr, align 8
  %7 = alloca ptr, align 8
  %8 = alloca ptr, align 8
  %9 = alloca ptr, align 8
  %10 = alloca i16, align 2
  %11 = alloca i16, align 2
  %12 = alloca i16, align 2
  %13 = alloca i32, align 4
  %14 = alloca i32, align 4
  store ptr %0, ptr %5, align 8
  store ptr %1, ptr %6, align 8
  store ptr %2, ptr %7, align 8
  store ptr %3, ptr %8, align 8
  call void @llvm.lifetime.start.p0(i64 8, ptr %9) #9
  call void @llvm.lifetime.start.p0(i64 2, ptr %10) #9
  call void @llvm.lifetime.start.p0(i64 2, ptr %11) #9
  call void @llvm.lifetime.start.p0(i64 2, ptr %12) #9
  call void @llvm.lifetime.start.p0(i64 4, ptr %13) #9
  call void @llvm.lifetime.start.p0(i64 4, ptr %14) #9
  store i32 0, ptr %14, align 4
  %15 = load ptr, ptr %8, align 8
  %16 = load i32, ptr %15, align 4
  store i32 %16, ptr %13, align 4
  br label %17

17:                                               ; preds = %59, %4
  %18 = load ptr, ptr %5, align 8
  %19 = load i32, ptr %14, align 4
  %20 = call zeroext i16 @tvb_get_letohs(ptr noundef %18, i32 noundef %19)
  store i16 %20, ptr %10, align 2
  %21 = load i16, ptr %10, align 2
  %22 = zext i16 %21 to i32
  %23 = and i32 %22, 65472
  %24 = ashr i32 %23, 6
  %25 = trunc i32 %24 to i16
  store i16 %25, ptr %11, align 2
  %26 = load i16, ptr %10, align 2
  %27 = zext i16 %26 to i32
  %28 = and i32 %27, 63
  %29 = trunc i32 %28 to i16
  store i16 %29, ptr %12, align 2
  %30 = load ptr, ptr %7, align 8
  %31 = load ptr, ptr %5, align 8
  %32 = load i32, ptr %14, align 4
  %33 = load i16, ptr %12, align 2
  %34 = zext i16 %33 to i32
  %35 = add i32 2, %34
  %36 = load i32, ptr @ett_thread, align 4
  %37 = call ptr @proto_tree_add_subtree(ptr noundef %30, ptr noundef %31, i32 noundef %32, i32 noundef %35, i32 noundef %36, ptr noundef null, ptr noundef @.str.487)
  store ptr %37, ptr %9, align 8
  %38 = load ptr, ptr %9, align 8
  %39 = load ptr, ptr %5, align 8
  %40 = load i32, ptr %14, align 4
  %41 = load i32, ptr @hf_ieee802154_thread_ie, align 4
  %42 = load i32, ptr @ett_thread_ie_fields, align 4
  %43 = call ptr @proto_tree_add_bitmask(ptr noundef %38, ptr noundef %39, i32 noundef %40, i32 noundef %41, i32 noundef %42, ptr noundef @dissect_thread_ie.fields, i32 noundef -2147483648)
  %44 = load i32, ptr %14, align 4
  %45 = add i32 %44, 2
  store i32 %45, ptr %14, align 4
  %46 = load i16, ptr %11, align 2
  %47 = zext i16 %46 to i32
  switch i32 %47, label %48 [
  ]

48:                                               ; preds = %17
  %49 = load i16, ptr %12, align 2
  %50 = zext i16 %49 to i32
  %51 = icmp sgt i32 %50, 0
  br i1 %51, label %52, label %57

52:                                               ; preds = %48
  %53 = load i16, ptr %12, align 2
  %54 = zext i16 %53 to i32
  %55 = load i32, ptr %14, align 4
  %56 = add i32 %55, %54
  store i32 %56, ptr %14, align 4
  br label %57

57:                                               ; preds = %52, %48
  br label %58

58:                                               ; preds = %57
  br label %59

59:                                               ; preds = %58
  %60 = load i32, ptr %14, align 4
  %61 = load i32, ptr %13, align 4
  %62 = icmp ult i32 %60, %61
  br i1 %62, label %17, label %63, !llvm.loop !20

63:                                               ; preds = %59
  %64 = load ptr, ptr %5, align 8
  %65 = call i32 @tvb_captured_length(ptr noundef %64)
  call void @llvm.lifetime.end.p0(i64 4, ptr %14) #9
  call void @llvm.lifetime.end.p0(i64 4, ptr %13) #9
  call void @llvm.lifetime.end.p0(i64 2, ptr %12) #9
  call void @llvm.lifetime.end.p0(i64 2, ptr %11) #9
  call void @llvm.lifetime.end.p0(i64 2, ptr %10) #9
  call void @llvm.lifetime.end.p0(i64 8, ptr %9) #9
  ret i32 %65
}