; Function Attrs: null_pointer_is_valid sspstrong uwtable
define internal i32 @dissect_thread_ie(ptr noundef %0, ptr readnone captures(none) %1, ptr noundef %2, ptr noundef readonly captures(none) %3) #0 {
  %5 = load i32, ptr %3, align 4
  br label %6

6:                                                ; preds = %6, %4
  %.0 = phi i32 [ 0, %4 ], [ %14, %6 ]
  %7 = tail call zeroext i16 @tvb_get_letohs(ptr noundef %0, i32 noundef %.0)
  %8 = and i16 %7, 63
  %narrow = add nuw nsw i16 %8, 2
  %9 = zext nneg i16 %narrow to i32
  %10 = load i32, ptr @ett_thread, align 4
  %11 = tail call ptr @proto_tree_add_subtree(ptr noundef %2, ptr noundef %0, i32 noundef %.0, i32 noundef %9, i32 noundef %10, ptr noundef null, ptr noundef nonnull @.str.487)
  %12 = load i32, ptr @ett_thread_ie_fields, align 4
  %13 = tail call ptr @proto_tree_add_bitmask(ptr noundef %11, ptr noundef %0, i32 noundef %.0, i32 noundef 0, i32 noundef %12, ptr noundef nonnull @dissect_thread_ie.fields, i32 noundef -2147483648)
  %14 = add i32 %.0, %9
  %15 = icmp ult i32 %14, %5
  br i1 %15, label %6, label %16, !llvm.loop !24

16:                                               ; preds = %6
  %17 = tail call i32 @tvb_captured_length(ptr noundef %0)
  ret i32 %17
}